; ModuleID = 'source-C-CXX/38/165.c'
source_filename = "source-C-CXX/38/165.c"
target datalayout = "e-m:e-p270:32:32-p271:32:32-p272:64:64-i64:64-f80:128-n8:16:32:64-S128"
target triple = "x86_64-pc-linux-gnu"

%struct.stu = type { [20 x i8], i32, i32, i8, i8, i32 }

@.str = private unnamed_addr constant [3 x i8] c"%d\00", align 1
@.str.1 = private unnamed_addr constant [18 x i8] c"%s %d %d %c %c %d\00", align 1
@.str.3 = private unnamed_addr constant [4 x i8] c"%d\0A\00", align 1

; Function Attrs: nofree nounwind sspstrong uwtable
define dso_local void @main() local_unnamed_addr #0 {
  %1 = alloca [100 x %struct.stu], align 16
  %2 = alloca i32, align 4
  %3 = alloca [100 x [20 x i8]], align 16
  %4 = getelementptr inbounds [100 x %struct.stu], [100 x %struct.stu]* %1, i64 0, i64 0, i32 0, i64 0
  call void @llvm.lifetime.start.p0i8(i64 3600, i8* nonnull %4) #5
  %5 = bitcast i32* %2 to i8*
  call void @llvm.lifetime.start.p0i8(i64 4, i8* nonnull %5) #5
  %6 = getelementptr inbounds [100 x [20 x i8]], [100 x [20 x i8]]* %3, i64 0, i64 0, i64 0
  call void @llvm.lifetime.start.p0i8(i64 2000, i8* nonnull %6) #5
  %7 = call i32 (i8*, ...) @__isoc99_scanf(i8* getelementptr inbounds ([3 x i8], [3 x i8]* @.str, i64 0, i64 0), i32* nonnull %2)
  %8 = load i32, i32* %2, align 4, !tbaa !5
  %9 = icmp sgt i32 %8, 0
  br i1 %9, label %10, label %70

10:                                               ; preds = %0, %63
  %11 = phi i64 [ %66, %63 ], [ 0, %0 ]
  %12 = phi i32 [ %52, %63 ], [ 0, %0 ]
  %13 = phi i32 [ %65, %63 ], [ 0, %0 ]
  %14 = phi i32 [ %64, %63 ], [ undef, %0 ]
  %15 = getelementptr inbounds [100 x %struct.stu], [100 x %struct.stu]* %1, i64 0, i64 %11, i32 0, i64 0
  %16 = getelementptr inbounds [100 x %struct.stu], [100 x %struct.stu]* %1, i64 0, i64 %11, i32 1
  %17 = getelementptr inbounds [100 x %struct.stu], [100 x %struct.stu]* %1, i64 0, i64 %11, i32 2
  %18 = getelementptr inbounds [100 x %struct.stu], [100 x %struct.stu]* %1, i64 0, i64 %11, i32 3
  %19 = getelementptr inbounds [100 x %struct.stu], [100 x %struct.stu]* %1, i64 0, i64 %11, i32 4
  %20 = getelementptr inbounds [100 x %struct.stu], [100 x %struct.stu]* %1, i64 0, i64 %11, i32 5
  %21 = call i32 (i8*, ...) @__isoc99_scanf(i8* getelementptr inbounds ([18 x i8], [18 x i8]* @.str.1, i64 0, i64 0), i8* nonnull %15, i32* nonnull %16, i32* nonnull %17, i8* nonnull %18, i8* nonnull %19, i32* nonnull %20)
  %22 = load i32, i32* %16, align 4, !tbaa !9
  %23 = icmp sgt i32 %22, 80
  br i1 %23, label %24, label %41

24:                                               ; preds = %10
  %25 = load i32, i32* %20, align 4, !tbaa !11
  %26 = icmp sgt i32 %25, 0
  %27 = select i1 %26, i32 8000, i32 0
  %28 = icmp sgt i32 %22, 85
  br i1 %28, label %29, label %41

29:                                               ; preds = %24
  %30 = load i32, i32* %17, align 4, !tbaa !12
  %31 = icmp sgt i32 %30, 80
  %32 = add nuw nsw i32 %27, 4000
  %33 = select i1 %31, i32 %32, i32 %27
  %34 = icmp sgt i32 %22, 90
  %35 = add nuw nsw i32 %33, 2000
  %36 = select i1 %34, i32 %35, i32 %33
  %37 = load i8, i8* %19, align 1, !tbaa !13
  %38 = icmp eq i8 %37, 89
  %39 = add nuw nsw i32 %36, 1000
  %40 = select i1 %38, i32 %39, i32 %36
  br label %41

41:                                               ; preds = %10, %24, %29
  %42 = phi i32 [ %40, %29 ], [ %27, %24 ], [ 0, %10 ]
  %43 = load i32, i32* %17, align 4, !tbaa !12
  %44 = icmp sgt i32 %43, 80
  br i1 %44, label %45, label %50

45:                                               ; preds = %41
  %46 = load i8, i8* %18, align 4, !tbaa !14
  %47 = icmp eq i8 %46, 89
  %48 = add nuw nsw i32 %42, 850
  %49 = select i1 %47, i32 %48, i32 %42
  br label %50

50:                                               ; preds = %45, %41
  %51 = phi i32 [ %42, %41 ], [ %49, %45 ]
  %52 = add nsw i32 %51, %12
  %53 = icmp sgt i32 %51, %13
  br i1 %53, label %54, label %56

54:                                               ; preds = %50
  %55 = call i8* @strcpy(i8* noundef nonnull %6, i8* noundef nonnull %15) #5
  br label %63

56:                                               ; preds = %50
  %57 = icmp eq i32 %51, %13
  br i1 %57, label %58, label %63

58:                                               ; preds = %56
  %59 = sext i32 %14 to i64
  %60 = getelementptr inbounds [100 x [20 x i8]], [100 x [20 x i8]]* %3, i64 0, i64 %59, i64 0
  %61 = call i8* @strcpy(i8* noundef nonnull %60, i8* noundef nonnull %15) #5
  %62 = add nsw i32 %14, 1
  br label %63

63:                                               ; preds = %54, %58, %56
  %64 = phi i32 [ 1, %54 ], [ %62, %58 ], [ %14, %56 ]
  %65 = phi i32 [ %51, %54 ], [ %13, %58 ], [ %13, %56 ]
  %66 = add nuw nsw i64 %11, 1
  %67 = load i32, i32* %2, align 4, !tbaa !5
  %68 = sext i32 %67 to i64
  %69 = icmp slt i64 %66, %68
  br i1 %69, label %10, label %70, !llvm.loop !15

70:                                               ; preds = %63, %0
  %71 = phi i32 [ 0, %0 ], [ %65, %63 ]
  %72 = phi i32 [ 0, %0 ], [ %52, %63 ]
  %73 = call i32 @puts(i8* nonnull %6)
  %74 = call i32 (i8*, ...) @printf(i8* nonnull dereferenceable(1) getelementptr inbounds ([4 x i8], [4 x i8]* @.str.3, i64 0, i64 0), i32 %71)
  %75 = call i32 (i8*, ...) @printf(i8* nonnull dereferenceable(1) getelementptr inbounds ([4 x i8], [4 x i8]* @.str.3, i64 0, i64 0), i32 %72)
  call void @llvm.lifetime.end.p0i8(i64 2000, i8* nonnull %6) #5
  call void @llvm.lifetime.end.p0i8(i64 4, i8* nonnull %5) #5
  call void @llvm.lifetime.end.p0i8(i64 3600, i8* nonnull %4) #5
  ret void
}

; Function Attrs: argmemonly mustprogress nofree nosync nounwind willreturn
declare void @llvm.lifetime.start.p0i8(i64 immarg, i8* nocapture) #1

; Function Attrs: nofree nounwind
declare noundef i32 @__isoc99_scanf(i8* nocapture noundef readonly, ...) local_unnamed_addr #2

; Function Attrs: argmemonly mustprogress nofree nounwind willreturn
declare i8* @strcpy(i8* noalias returned writeonly, i8* noalias nocapture readonly) local_unnamed_addr #3

; Function Attrs: nofree nounwind
declare noundef i32 @printf(i8* nocapture noundef readonly, ...) local_unnamed_addr #2

; Function Attrs: argmemonly mustprogress nofree nosync nounwind willreturn
declare void @llvm.lifetime.end.p0i8(i64 immarg, i8* nocapture) #1

; Function Attrs: nofree nounwind
declare noundef i32 @puts(i8* nocapture noundef readonly) local_unnamed_addr #4


!llvm.module.flags = !{!0, !1, !2, !3}
!llvm.ident = !{!4}

!0 = !{i32 1, !"wchar_size", i32 4}
!1 = !{i32 7, !"PIC Level", i32 2}
!2 = !{i32 7, !"PIE Level", i32 2}
!3 = !{i32 7, !"uwtable", i32 1}
!4 = !{!"clang version 13.0.0"}
!5 = !{!6, !6, i64 0}
!6 = !{!"int", !7, i64 0}
!7 = !{!"omnipotent char", !8, i64 0}
!8 = !{!"Simple C/C++ TBAA"}
!9 = !{!10, !6, i64 20}
!10 = !{!"stu", !7, i64 0, !6, i64 20, !6, i64 24, !7, i64 28, !7, i64 29, !6, i64 32}
!11 = !{!10, !6, i64 32}
!12 = !{!10, !6, i64 24}
!13 = !{!10, !7, i64 29}
!14 = !{!10, !7, i64 28}
!15 = distinct !{!15, !16}
!16 = !{!"llvm.loop.mustprogress"}
